target datalayout = "e-m:e-p270:32:32-p271:32:32-p272:64:64-i64:64-i128:128-f80:128-n8:16:32:64-S128"
target triple = "x86_64-pc-linux-gnu"

@.str.26 = private unnamed_addr constant [28 x i8] c"buffer access out of bounds\00", align 1

; Function Attrs: mustprogress uwtable
define internal noundef i32 @_ZL19buffer_writeintegerIaEiP9lua_State(ptr noundef %0) #0 {
  %2 = alloca ptr, align 8
  %3 = alloca i64, align 8
  %4 = alloca ptr, align 8
  %5 = alloca i32, align 4
  %6 = alloca i32, align 4
  %7 = alloca i8, align 1
  store ptr %0, ptr %2, align 8
  store i64 0, ptr %3, align 8
  %8 = load ptr, ptr %2, align 8
  %9 = call noundef ptr @_Z16luaL_checkbufferP9lua_StateiPm(ptr noundef %8, i32 noundef 1, ptr noundef %3)
  store ptr %9, ptr %4, align 8
  %10 = load ptr, ptr %2, align 8
  %11 = call noundef i32 @_Z17luaL_checkintegerP9lua_Statei(ptr noundef %10, i32 noundef 2)
  store i32 %11, ptr %5, align 4
  %12 = load ptr, ptr %2, align 8
  %13 = call noundef i32 @_Z18luaL_checkunsignedP9lua_Statei(ptr noundef %12, i32 noundef 3)
  store i32 %13, ptr %6, align 4
  %14 = load i32, ptr %5, align 4
  %15 = zext i32 %14 to i64
  %16 = add i64 %15, 1
  %17 = load i64, ptr %3, align 8
  %18 = icmp ugt i64 %16, %17
  br i1 %18, label %19, label %21

19:                                               ; preds = %1
  %20 = load ptr, ptr %2, align 8
  call void (ptr, ptr, ...) @_Z11luaL_errorLP9lua_StatePKcz(ptr noundef %20, ptr noundef @.str.26) #5
  unreachable

21:                                               ; preds = %1
  %22 = load i32, ptr %6, align 4
  %23 = trunc i32 %22 to i8
  store i8 %23, ptr %7, align 1
  %24 = load ptr, ptr %4, align 8
  %25 = load i32, ptr %5, align 4
  %26 = sext i32 %25 to i64
  %27 = getelementptr inbounds i8, ptr %24, i64 %26
  call void @llvm.memcpy.p0.p0.i64(ptr align 1 %27, ptr align 1 %7, i64 1, i1 false)
  ret i32 0
}