; Function Attrs: mustprogress uwtable
define internal noundef i32 @_ZL19buffer_writeintegerIaEiP9lua_State(ptr noundef %0) #0 {
  %2 = alloca i64, align 8
  store i64 0, ptr %2, align 8
  %3 = call noundef ptr @_Z16luaL_checkbufferP9lua_StateiPm(ptr noundef %0, i32 noundef 1, ptr noundef nonnull %2)
  %4 = call noundef i32 @_Z17luaL_checkintegerP9lua_Statei(ptr noundef %0, i32 noundef 2)
  %5 = call noundef i32 @_Z18luaL_checkunsignedP9lua_Statei(ptr noundef %0, i32 noundef 3)
  %6 = zext i32 %4 to i64
  %7 = load i64, ptr %2, align 8
  %.not = icmp ugt i64 %7, %6
  br i1 %.not, label %9, label %8

8:                                                ; preds = %1
  call void (ptr, ptr, ...) @_Z11luaL_errorLP9lua_StatePKcz(ptr noundef %0, ptr noundef nonnull @.str.26) #5
  unreachable

9:                                                ; preds = %1
  %10 = trunc i32 %5 to i8
  %11 = sext i32 %4 to i64
  %12 = getelementptr inbounds i8, ptr %3, i64 %11
  store i8 %10, ptr %12, align 1
  ret i32 0
}